; Function Attrs: cold mustprogress nofree norecurse nosync nounwind optsize willreturn memory(argmem: readwrite) uwtable
define internal range(i32 -22, 1) i32 @aura_decode_init(ptr noundef captures(none) %0) #0 {
  %2 = getelementptr inbounds nuw i8, ptr %0, i64 112
  %3 = load i32, ptr %2, align 8, !tbaa !4
  %4 = and i32 %3, 3
  %.not = icmp eq i32 %4, 0
  br i1 %.not, label %5, label %7

5:                                                ; preds = %1
  %6 = getelementptr inbounds nuw i8, ptr %0, i64 136
  store i32 4, ptr %6, align 8, !tbaa !27
  br label %7

7:                                                ; preds = %1, %5
  %.0 = phi i32 [ 0, %5 ], [ -22, %1 ]
  ret i32 %.0
}